(dp0
I1
(lp1
I2
aI3
asI2
(lp2
I1
aI3
aI5
aI6
aI7
asI3
(lp3
I1
aI2
aI4
aI5
asI4
(lp4
I3
aI5
aI8
aI10
asI5
(lp5
I2
aI3
aI4
aI7
aI8
asI6
(lp6
I2
aI7
asI7
(lp7
I2
aI5
aI6
aI8
aI9
asI8
(lp8
I4
aI5
aI7
aI9
aI10
asI9
(lp9
I7
aI8
aI10
aI14
asI10
(lp10
I4
aI8
aI9
aI11
aI14
aI15
aI16
asI11
(lp11
I10
aI13
aI16
asI12
(lp12
I14
asI13
(lp13
I11
aI16
aI17
aI20
asI14
(lp14
I9
aI10
aI15
aI21
aI22
aI12
asI15
(lp15
I10
aI14
aI16
aI21
asI16
(lp16
I10
aI11
aI13
aI15
aI20
aI21
asI17
(lp17
I13
aI18
aI19
aI20
asI18
(lp18
I17
asI19
(lp19
I17
aI20
aI25
asI20
(lp20
I13
aI16
aI17
aI19
aI21
aI24
aI25
asI21
(lp21
I14
aI15
aI16
aI20
aI22
aI23
aI24
asI22
(lp22
I14
aI21
aI23
asI23
(lp23
I21
aI22
aI24
asI24
(lp24
I20
aI21
aI23
aI25
aI26
asI25
(lp25
I19
aI20
aI24
aI26
asI26
(lp26
I24
aI25
as.