(dp0
I14
(lp1
I13
aI15
asI15
(lp2
I13
aI14
aI16
aI17
aI18
asI16
(lp3
I15
aI17
aI31
aI32
asI17
(lp4
I15
aI16
aI18
aI30
aI31
asI18
(lp5
I13
aI14
aI15
aI17
aI19
aI29
aI30
asI19
(lp6
I13
aI18
aI20
aI21
aI29
asI20
(lp7
I12
aI13
aI19
aI21
aI23
aI24
asI21
(lp8
I19
aI20
aI22
aI23
aI24
aI29
asI22
(lp9
I21
aI23
aI27
aI28
aI29
asI23
(lp10
I20
aI21
aI22
aI24
aI26
aI27
asI24
(lp11
I20
aI23
aI25
aI26
asI25
(lp12
I24
aI48
aI49
asI26
(lp13
I23
aI24
aI25
aI27
aI45
aI46
aI47
aI48
asI27
(lp14
I22
aI23
aI26
aI28
aI45
asI28
(lp15
I22
aI27
aI29
aI35
aI36
aI44
aI45
aI46
asI29
(lp16
I18
aI19
aI21
aI22
aI28
aI30
aI34
aI35
asI30
(lp17
I17
aI18
aI29
aI31
aI34
asI31
(lp18
I16
aI17
aI30
aI32
aI33
asI32
(lp19
I16
aI31
aI34
aI38
aI39
asI33
(lp20
I31
aI34
asI34
(lp21
I29
aI30
aI31
aI32
aI33
aI35
aI37
aI38
asI35
(lp22
I28
aI29
aI34
aI36
aI37
asI36
(lp23
I28
aI35
aI37
aI44
asI37
(lp24
I34
aI35
aI36
aI38
aI43
aI44
asI38
(lp25
I32
aI34
aI37
aI39
aI40
aI43
asI39
(lp26
I32
aI38
aI40
aI41
asI40
(lp27
I38
aI39
aI41
aI43
asI41
(lp28
I39
aI40
aI42
aI43
aI56
asI42
(lp29
I41
asI43
(lp30
I37
aI38
aI40
aI41
aI44
aI46
aI54
aI56
asI44
(lp31
I28
aI36
aI37
aI43
aI46
asI45
(lp32
I26
aI27
aI28
aI46
aI47
asI46
(lp33
I26
aI28
aI43
aI44
aI45
aI47
aI52
aI53
aI54
asI47
(lp34
I26
aI46
aI48
aI52
asI48
(lp35
I25
aI26
aI47
aI49
aI51
aI52
asI49
(lp36
I25
aI48
aI50
aI51
asI50
(lp37
I49
aI51
aI60
asI51
(lp38
I48
aI49
aI50
aI52
aI53
aI59
aI60
asI52
(lp39
I46
aI47
aI48
aI51
aI53
asI53
(lp40
I46
aI51
aI52
aI54
aI57
aI58
aI59
asI54
(lp41
I43
aI46
aI53
aI56
aI57
asI55
(lp42
I56
asI56
(lp43
I41
aI43
aI54
aI55
asI57
(lp44
I53
aI54
aI58
aI59
asI58
(lp45
I53
aI57
aI59
aI69
asI59
(lp46
I51
aI53
aI58
aI60
aI62
aI69
asI60
(lp47
I50
aI51
aI59
aI61
aI62
asI61
(lp48
I60
aI62
aI63
asI62
(lp49
I59
aI60
aI61
aI63
aI66
aI69
asI63
(lp50
I61
aI62
aI64
aI66
asI64
(lp51
I63
aI65
aI66
asI65
(lp52
I64
aI66
aI67
aI68
asI66
(lp53
I62
aI63
aI64
aI65
aI67
aI69
asI67
(lp54
I65
aI66
aI68
aI69
asI68
(lp55
I65
aI67
aI69
aI70
aI71
asI69
(lp56
I58
aI59
aI62
aI66
aI67
aI68
aI70
aI78
as.