(dp0
I70
(lp1
I68
aI69
aI71
aI72
aI78
asI71
(lp2
I68
aI70
aI72
asI72
(lp3
I70
aI71
aI73
aI78
asI73
(lp4
I72
aI74
aI76
aI78
asI74
(lp5
I73
aI76
asI75
(lp6
I76
asI76
(lp7
I73
aI74
aI75
aI78
aI79
asI77
(lp8
sI78
(lp9
I69
aI70
aI72
aI73
aI76
aI79
aI81
asI79
(lp10
I76
aI78
aI80
aI81
asI80
(lp11
I79
aI81
asI81
(lp12
I78
aI79
aI80
asI82
(lp13
s.