(dp0
I1
(lp1
I2
aI8
aI10
aI83
asI2
(lp2
I1
aI3
aI8
asI3
(lp3
I2
aI4
aI8
asI4
(lp4
I3
aI5
aI6
aI8
asI5
(lp5
I4
aI6
asI6
(lp6
I4
aI5
aI7
aI8
asI7
(lp7
I6
aI8
aI9
asI8
(lp8
I1
aI2
aI3
aI4
aI6
aI7
aI9
aI10
asI9
(lp9
I8
aI10
aI11
aI12
asI10
(lp10
I1
aI8
aI9
aI12
aI13
asI11
(lp11
I9
aI12
asI83
(lp12
I1
as.