(dp0
I1
(lp1
I2
aI8
aI10
aI83
asI2
(lp2
I1
aI3
aI8
asI3
(lp3
I2
aI4
aI8
asI4
(lp4
I3
aI5
aI6
aI8
asI5
(lp5
I4
aI6
asI6
(lp6
I4
aI5
aI7
aI8
asI7
(lp7
I6
aI8
aI9
asI8
(lp8
I1
aI2
aI3
aI4
aI6
aI7
aI9
aI10
asI9
(lp9
I8
aI10
aI11
aI12
asI10
(lp10
I1
aI8
aI9
aI12
aI13
asI11
(lp11
I9
aI12
asI12
(lp12
I9
aI10
aI11
aI13
aI20
asI13
(lp13
I10
aI12
aI14
aI15
aI18
aI19
aI20
asI14
(lp14
I13
aI15
asI15
(lp15
I13
aI14
aI16
aI17
aI18
asI16
(lp16
I15
aI17
aI31
aI32
asI17
(lp17
I15
aI16
aI18
aI30
aI31
asI18
(lp18
I13
aI14
aI15
aI17
aI19
aI29
aI30
asI19
(lp19
I13
aI18
aI20
aI21
aI29
asI20
(lp20
I12
aI13
aI19
aI21
aI23
aI24
asI21
(lp21
I19
aI20
aI22
aI23
aI24
aI29
asI22
(lp22
I21
aI23
aI27
aI28
aI29
asI23
(lp23
I20
aI21
aI22
aI24
aI26
aI27
asI24
(lp24
I20
aI23
aI25
aI26
asI25
(lp25
I24
aI48
aI49
aI26
asI26
(lp26
I23
aI24
aI25
aI27
aI45
aI46
aI47
aI48
asI27
(lp27
I22
aI23
aI26
aI28
aI45
asI28
(lp28
I22
aI27
aI29
aI35
aI36
aI44
aI45
aI46
asI29
(lp29
I18
aI19
aI21
aI22
aI28
aI30
aI34
aI35
asI30
(lp30
I17
aI18
aI29
aI31
aI34
asI31
(lp31
I16
aI17
aI30
aI32
aI33
aI34
asI32
(lp32
I16
aI31
aI34
aI38
aI39
asI33
(lp33
I31
aI34
asI34
(lp34
I29
aI30
aI31
aI32
aI33
aI35
aI37
aI38
asI35
(lp35
I28
aI29
aI34
aI36
aI37
asI36
(lp36
I28
aI35
aI37
aI44
asI37
(lp37
I34
aI35
aI36
aI38
aI43
aI44
asI38
(lp38
I32
aI34
aI37
aI39
aI40
aI43
asI39
(lp39
I32
aI38
aI40
aI41
asI40
(lp40
I38
aI39
aI41
aI43
asI41
(lp41
I39
aI40
aI42
aI43
aI56
asI42
(lp42
I41
asI43
(lp43
I37
aI38
aI40
aI41
aI44
aI46
aI54
aI56
asI44
(lp44
I28
aI36
aI37
aI43
aI46
asI45
(lp45
I26
aI27
aI28
aI46
aI47
asI46
(lp46
I26
aI28
aI43
aI44
aI45
aI47
aI52
aI53
aI54
asI47
(lp47
I26
aI46
aI48
aI52
asI48
(lp48
I25
aI26
aI47
aI49
aI51
aI52
asI49
(lp49
I25
aI48
aI50
aI51
asI50
(lp50
I49
aI51
aI60
asI51
(lp51
I48
aI49
aI50
aI52
aI53
aI59
aI60
asI52
(lp52
I46
aI47
aI48
aI51
aI53
asI53
(lp53
I46
aI51
aI52
aI54
aI57
aI58
aI59
asI54
(lp54
I43
aI46
aI53
aI56
aI57
asI55
(lp55
I56
asI56
(lp56
I41
aI43
aI54
aI55
asI57
(lp57
I53
aI54
aI58
aI59
asI58
(lp58
I53
aI57
aI59
aI69
asI59
(lp59
I51
aI53
aI58
aI60
aI62
aI69
asI60
(lp60
I50
aI51
aI59
aI61
aI62
asI61
(lp61
I60
aI62
aI63
asI62
(lp62
I59
aI60
aI61
aI63
aI66
aI69
asI63
(lp63
I61
aI62
aI64
aI66
asI64
(lp64
I63
aI65
aI66
asI65
(lp65
I64
aI66
aI67
aI68
asI66
(lp66
I62
aI63
aI64
aI65
aI67
aI69
asI67
(lp67
I65
aI66
aI68
aI69
asI68
(lp68
I65
aI67
aI69
aI70
aI71
asI69
(lp69
I58
aI59
aI62
aI66
aI67
aI68
aI70
aI78
asI70
(lp70
I68
aI69
aI71
aI72
aI78
asI71
(lp71
I68
aI70
aI72
asI72
(lp72
I70
aI71
aI73
aI78
asI73
(lp73
I72
aI74
aI76
aI78
asI74
(lp74
I73
aI76
asI75
(lp75
I76
asI76
(lp76
I73
aI74
aI75
aI78
aI79
asI77
(lp77
sI78
(lp78
I69
aI70
aI72
aI73
aI76
aI79
aI81
asI79
(lp79
I76
aI78
aI80
aI81
asI80
(lp80
I79
aI81
asI81
(lp81
I78
aI79
aI80
asI82
(lp82
sI83
(lp83
I1
as.