(dp0
I1
(lp1
I2
aI3
aI4
asI2
(lp2
I1
aI3
aI5
aI6
asI3
(lp3
I2
aI4
aI5
asI4
(lp4
I1
aI3
aI5
aI7
aI8
aI9
asI5
(lp5
I2
aI3
aI4
aI6
aI9
aI10
aI11
asI6
(lp6
I2
aI5
aI10
aI11
aI12
asI7
(lp7
I4
aI8
aI9
aI13
aI14
aI15
aI16
aI17
asI8
(lp8
I4
aI7
aI9
asI9
(lp9
I4
aI5
aI7
aI8
aI10
aI13
aI18
aI19
asI10
(lp10
I5
aI9
aI11
aI19
aI20
asI11
(lp11
I5
aI6
aI10
aI12
aI20
asI12
(lp12
I6
aI11
aI20
aI21
asI13
(lp13
I7
aI9
aI14
aI18
asI14
(lp14
I7
aI13
aI15
aI18
aI22
aI23
aI24
asI15
(lp15
I7
aI14
aI16
asI16
(lp16
I7
aI15
aI17
asI17
(lp17
I7
aI16
asI18
(lp18
I9
aI13
aI14
aI19
aI24
aI25
asI19
(lp19
I9
aI10
aI18
aI20
aI25
aI26
asI20
(lp20
I10
aI11
aI12
aI19
aI21
aI26
asI21
(lp21
I12
aI20
aI26
aI27
asI22
(lp22
I14
aI23
asI23
(lp23
I14
aI22
asI24
(lp24
I14
aI18
aI25
aI28
asI25
(lp25
I18
aI19
aI24
aI26
aI28
aI29
asI26
(lp26
I19
aI20
aI21
aI25
aI27
aI29
asI27
(lp27
I21
aI26
aI29
asI28
(lp28
I24
aI25
aI29
asI29
(lp29
I25
aI26
aI27
aI28
as.