(dp0
I1
(lp1
I2
aI5
asI2
(lp2
I1
aI3
aI4
aI5
asI3
(lp3
I2
aI4
aI9
asI4
(lp4
I2
aI3
aI5
aI8
aI9
asI5
(lp5
I1
aI2
aI4
aI6
aI7
aI8
asI6
(lp6
I5
aI7
aI12
aI13
asI7
(lp7
I5
aI6
aI8
aI11
aI12
aI13
aI14
asI8
(lp8
I4
aI5
aI6
aI7
aI9
aI11
asI9
(lp9
I3
aI4
aI8
aI10
asI10
(lp10
I9
aI11
aI16
aI17
asI11
(lp11
I7
aI8
aI10
aI14
aI15
aI16
asI12
(lp12
I6
aI13
aI18
asI13
(lp13
I6
aI7
aI12
aI14
aI18
aI19
asI14
(lp14
I7
aI11
aI13
aI15
aI19
aI20
asI15
(lp15
I11
aI14
aI16
aI20
asI16
(lp16
I10
aI11
aI15
aI17
aI20
aI21
asI17
(lp17
I10
aI16
aI21
aI22
asI18
(lp18
I12
aI13
aI19
aI23
asI19
(lp19
I13
aI14
aI18
aI20
aI23
aI24
asI20
(lp20
I14
aI15
aI16
aI19
aI21
aI24
aI25
aI43
asI21
(lp21
I16
aI17
aI20
aI22
aI43
aI44
asI22
(lp22
I17
aI21
aI44
asI23
(lp23
I18
aI19
aI24
aI27
asI24
(lp24
I19
aI20
aI23
aI25
aI26
asI25
(lp25
I20
aI24
aI26
aI28
aI40
aI41
aI43
asI26
(lp26
I24
aI25
aI27
aI28
asI27
(lp27
I23
aI26
aI28
asI28
(lp28
I25
aI26
aI27
aI39
aI40
asI29
(lp29
I30
aI32
aI34
aI39
asI30
(lp30
I29
aI33
aI34
asI31
(lp31
I33
asI32
(lp32
I29
aI34
aI35
asI33
(lp33
I30
aI31
aI34
asI34
(lp34
I29
aI30
aI32
aI33
aI35
asI35
(lp35
I32
aI34
asI36
(lp36
I29
aI37
aI39
asI37
(lp37
I36
aI38
aI39
asI38
(lp38
I37
aI39
aI40
aI41
asI39
(lp39
I28
aI29
aI36
aI37
aI38
aI40
asI40
(lp40
I25
aI28
aI38
aI39
aI41
asI41
(lp41
I25
aI38
aI40
aI42
aI43
asI42
(lp42
I41
aI43
aI46
aI47
asI43
(lp43
I20
aI21
aI25
aI42
aI44
aI45
aI46
aI41
asI44
(lp44
I21
aI22
aI43
aI45
asI45
(lp45
I43
aI44
aI46
aI48
asI46
(lp46
I42
aI43
aI45
aI47
aI48
asI47
(lp47
I42
aI46
asI48
(lp48
I45
aI46
as.